target datalayout = "e-m:e-p270:32:32-p271:32:32-p272:64:64-i64:64-i128:128-f80:128-n8:16:32:64-S128"
target triple = "x86_64-pc-linux-gnu"

%struct._zval_struct = type { %union._zend_value, %union.anon, %union.anon.2 }
%union._zend_value = type { i64 }
%union.anon = type { i32 }
%union.anon.2 = type { i32 }
%struct._zend_refcounted_h = type { i32, %union.anon.3 }
%union.anon.3 = type { i32 }
%struct._zend_string = type { %struct._zend_refcounted_h, i64, i64, [1 x i8] }
%struct._php_stream = type { ptr, ptr, %struct._php_stream_filter_chain, %struct._php_stream_filter_chain, ptr, ptr, %struct._zval_struct, i16, [16 x i8], i32, ptr, ptr, ptr, ptr, i64, ptr, i64, i64, i64, i64, ptr }
%struct._php_stream_filter_chain = type { ptr, ptr, ptr }
%struct._php_userstream_data = type { ptr, %struct._zval_struct }

@.str.75 = private unnamed_addr constant [13 x i8] c"stream_close\00", align 1

; Function Attrs: nounwind uwtable
define internal i32 @call_method_if_exists(ptr noundef %0, ptr noundef %1, ptr noundef %2, i32 noundef %3, ptr noundef %4) #0 {
  %6 = alloca ptr, align 8
  %7 = alloca ptr, align 8
  %8 = alloca ptr, align 8
  %9 = alloca i32, align 4
  %10 = alloca ptr, align 8
  store ptr %0, ptr %6, align 8
  store ptr %1, ptr %7, align 8
  store ptr %2, ptr %8, align 8
  store i32 %3, ptr %9, align 4
  store ptr %4, ptr %10, align 8
  %11 = load ptr, ptr %6, align 8
  %12 = getelementptr inbounds %struct._zval_struct, ptr %11, i32 0, i32 0
  %13 = load ptr, ptr %12, align 8
  %14 = load ptr, ptr %7, align 8
  %15 = getelementptr inbounds %struct._zval_struct, ptr %14, i32 0, i32 0
  %16 = load ptr, ptr %15, align 8
  %17 = load ptr, ptr %8, align 8
  %18 = load i32, ptr %9, align 4
  %19 = load ptr, ptr %10, align 8
  %20 = call i32 @zend_call_method_if_exists(ptr noundef %13, ptr noundef %16, ptr noundef %17, i32 noundef %18, ptr noundef %19)
  ret i32 %20
}

; Function Attrs: nounwind uwtable
define internal i32 @php_userstreamop_close(ptr noundef %0, i32 noundef %1) #0 {
  %3 = alloca ptr, align 8
  %4 = alloca i32, align 4
  %5 = alloca i64, align 8
  %6 = alloca i8, align 1
  %7 = alloca ptr, align 8
  %8 = alloca ptr, align 8
  %9 = alloca i64, align 8
  %10 = alloca i8, align 1
  %11 = alloca ptr, align 8
  %12 = alloca ptr, align 8
  %13 = alloca i32, align 4
  %14 = alloca %struct._zval_struct, align 8
  %15 = alloca %struct._zval_struct, align 8
  %16 = alloca ptr, align 8
  %17 = alloca ptr, align 8
  %18 = alloca ptr, align 8
  store ptr %0, ptr %12, align 8
  store i32 %1, ptr %13, align 4
  %19 = load ptr, ptr %12, align 8
  %20 = getelementptr inbounds %struct._php_stream, ptr %19, i32 0, i32 1
  %21 = load ptr, ptr %20, align 8
  store ptr %21, ptr %16, align 8
  br label %22

22:                                               ; preds = %2
  br label %23

23:                                               ; preds = %22
  store ptr %14, ptr %17, align 8
  store ptr @.str.75, ptr %8, align 8
  store i64 12, ptr %9, align 8
  store i8 0, ptr %10, align 1
  %24 = load i64, ptr %9, align 8
  %25 = load i8, ptr %10, align 1
  %26 = trunc i8 %25 to i1
  store i64 %24, ptr %5, align 8
  %27 = zext i1 %26 to i8
  store i8 %27, ptr %6, align 1
  %28 = load i8, ptr %6, align 1
  %29 = trunc i8 %28 to i1
  br i1 %29, label %30, label %38

30:                                               ; preds = %23
  %31 = load i64, ptr %5, align 8
  %32 = add i64 24, %31
  %33 = add i64 %32, 1
  %34 = add i64 %33, 8
  %35 = sub i64 %34, 1
  %36 = and i64 %35, -8
  %37 = call noalias ptr @__zend_malloc(i64 noundef %36) #13
  br label %442

38:                                               ; preds = %23
  %39 = load i64, ptr %5, align 8
  %40 = add i64 24, %39
  %41 = add i64 %40, 1
  %42 = add i64 %41, 8
  %43 = sub i64 %42, 1
  %44 = and i64 %43, -8
  %45 = call i1 @llvm.is.constant.i64(i64 %44)
  br i1 %45, label %46, label %432

46:                                               ; preds = %38
  %47 = load i64, ptr %5, align 8
  %48 = add i64 24, %47
  %49 = add i64 %48, 1
  %50 = add i64 %49, 8
  %51 = sub i64 %50, 1
  %52 = and i64 %51, -8
  %53 = icmp ule i64 %52, 8
  br i1 %53, label %54, label %56

54:                                               ; preds = %46
  %55 = call noalias ptr @_emalloc_8() #12
  br label %430

56:                                               ; preds = %46
  %57 = load i64, ptr %5, align 8
  %58 = add i64 24, %57
  %59 = add i64 %58, 1
  %60 = add i64 %59, 8
  %61 = sub i64 %60, 1
  %62 = and i64 %61, -8
  %63 = icmp ule i64 %62, 16
  br i1 %63, label %64, label %66

64:                                               ; preds = %56
  %65 = call noalias ptr @_emalloc_16() #12
  br label %428

66:                                               ; preds = %56
  %67 = load i64, ptr %5, align 8
  %68 = add i64 24, %67
  %69 = add i64 %68, 1
  %70 = add i64 %69, 8
  %71 = sub i64 %70, 1
  %72 = and i64 %71, -8
  %73 = icmp ule i64 %72, 24
  br i1 %73, label %74, label %76

74:                                               ; preds = %66
  %75 = call noalias ptr @_emalloc_24() #12
  br label %426

76:                                               ; preds = %66
  %77 = load i64, ptr %5, align 8
  %78 = add i64 24, %77
  %79 = add i64 %78, 1
  %80 = add i64 %79, 8
  %81 = sub i64 %80, 1
  %82 = and i64 %81, -8
  %83 = icmp ule i64 %82, 32
  br i1 %83, label %84, label %86

84:                                               ; preds = %76
  %85 = call noalias ptr @_emalloc_32() #12
  br label %424

86:                                               ; preds = %76
  %87 = load i64, ptr %5, align 8
  %88 = add i64 24, %87
  %89 = add i64 %88, 1
  %90 = add i64 %89, 8
  %91 = sub i64 %90, 1
  %92 = and i64 %91, -8
  %93 = icmp ule i64 %92, 40
  br i1 %93, label %94, label %96

94:                                               ; preds = %86
  %95 = call noalias ptr @_emalloc_40() #12
  br label %422

96:                                               ; preds = %86
  %97 = load i64, ptr %5, align 8
  %98 = add i64 24, %97
  %99 = add i64 %98, 1
  %100 = add i64 %99, 8
  %101 = sub i64 %100, 1
  %102 = and i64 %101, -8
  %103 = icmp ule i64 %102, 48
  br i1 %103, label %104, label %106

104:                                              ; preds = %96
  %105 = call noalias ptr @_emalloc_48() #12
  br label %420

106:                                              ; preds = %96
  %107 = load i64, ptr %5, align 8
  %108 = add i64 24, %107
  %109 = add i64 %108, 1
  %110 = add i64 %109, 8
  %111 = sub i64 %110, 1
  %112 = and i64 %111, -8
  %113 = icmp ule i64 %112, 56
  br i1 %113, label %114, label %116

114:                                              ; preds = %106
  %115 = call noalias ptr @_emalloc_56() #12
  br label %418

116:                                              ; preds = %106
  %117 = load i64, ptr %5, align 8
  %118 = add i64 24, %117
  %119 = add i64 %118, 1
  %120 = add i64 %119, 8
  %121 = sub i64 %120, 1
  %122 = and i64 %121, -8
  %123 = icmp ule i64 %122, 64
  br i1 %123, label %124, label %126

124:                                              ; preds = %116
  %125 = call noalias ptr @_emalloc_64() #12
  br label %416

126:                                              ; preds = %116
  %127 = load i64, ptr %5, align 8
  %128 = add i64 24, %127
  %129 = add i64 %128, 1
  %130 = add i64 %129, 8
  %131 = sub i64 %130, 1
  %132 = and i64 %131, -8
  %133 = icmp ule i64 %132, 80
  br i1 %133, label %134, label %136

134:                                              ; preds = %126
  %135 = call noalias ptr @_emalloc_80() #12
  br label %414

136:                                              ; preds = %126
  %137 = load i64, ptr %5, align 8
  %138 = add i64 24, %137
  %139 = add i64 %138, 1
  %140 = add i64 %139, 8
  %141 = sub i64 %140, 1
  %142 = and i64 %141, -8
  %143 = icmp ule i64 %142, 96
  br i1 %143, label %144, label %146

144:                                              ; preds = %136
  %145 = call noalias ptr @_emalloc_96() #12
  br label %412

146:                                              ; preds = %136
  %147 = load i64, ptr %5, align 8
  %148 = add i64 24, %147
  %149 = add i64 %148, 1
  %150 = add i64 %149, 8
  %151 = sub i64 %150, 1
  %152 = and i64 %151, -8
  %153 = icmp ule i64 %152, 112
  br i1 %153, label %154, label %156

154:                                              ; preds = %146
  %155 = call noalias ptr @_emalloc_112() #12
  br label %410

156:                                              ; preds = %146
  %157 = load i64, ptr %5, align 8
  %158 = add i64 24, %157
  %159 = add i64 %158, 1
  %160 = add i64 %159, 8
  %161 = sub i64 %160, 1
  %162 = and i64 %161, -8
  %163 = icmp ule i64 %162, 128
  br i1 %163, label %164, label %166

164:                                              ; preds = %156
  %165 = call noalias ptr @_emalloc_128() #12
  br label %408

166:                                              ; preds = %156
  %167 = load i64, ptr %5, align 8
  %168 = add i64 24, %167
  %169 = add i64 %168, 1
  %170 = add i64 %169, 8
  %171 = sub i64 %170, 1
  %172 = and i64 %171, -8
  %173 = icmp ule i64 %172, 160
  br i1 %173, label %174, label %176

174:                                              ; preds = %166
  %175 = call noalias ptr @_emalloc_160() #12
  br label %406

176:                                              ; preds = %166
  %177 = load i64, ptr %5, align 8
  %178 = add i64 24, %177
  %179 = add i64 %178, 1
  %180 = add i64 %179, 8
  %181 = sub i64 %180, 1
  %182 = and i64 %181, -8
  %183 = icmp ule i64 %182, 192
  br i1 %183, label %184, label %186

184:                                              ; preds = %176
  %185 = call noalias ptr @_emalloc_192() #12
  br label %404

186:                                              ; preds = %176
  %187 = load i64, ptr %5, align 8
  %188 = add i64 24, %187
  %189 = add i64 %188, 1
  %190 = add i64 %189, 8
  %191 = sub i64 %190, 1
  %192 = and i64 %191, -8
  %193 = icmp ule i64 %192, 224
  br i1 %193, label %194, label %196

194:                                              ; preds = %186
  %195 = call noalias ptr @_emalloc_224() #12
  br label %402

196:                                              ; preds = %186
  %197 = load i64, ptr %5, align 8
  %198 = add i64 24, %197
  %199 = add i64 %198, 1
  %200 = add i64 %199, 8
  %201 = sub i64 %200, 1
  %202 = and i64 %201, -8
  %203 = icmp ule i64 %202, 256
  br i1 %203, label %204, label %206

204:                                              ; preds = %196
  %205 = call noalias ptr @_emalloc_256() #12
  br label %400

206:                                              ; preds = %196
  %207 = load i64, ptr %5, align 8
  %208 = add i64 24, %207
  %209 = add i64 %208, 1
  %210 = add i64 %209, 8
  %211 = sub i64 %210, 1
  %212 = and i64 %211, -8
  %213 = icmp ule i64 %212, 320
  br i1 %213, label %214, label %216

214:                                              ; preds = %206
  %215 = call noalias ptr @_emalloc_320() #12
  br label %398

216:                                              ; preds = %206
  %217 = load i64, ptr %5, align 8
  %218 = add i64 24, %217
  %219 = add i64 %218, 1
  %220 = add i64 %219, 8
  %221 = sub i64 %220, 1
  %222 = and i64 %221, -8
  %223 = icmp ule i64 %222, 384
  br i1 %223, label %224, label %226

224:                                              ; preds = %216
  %225 = call noalias ptr @_emalloc_384() #12
  br label %396

226:                                              ; preds = %216
  %227 = load i64, ptr %5, align 8
  %228 = add i64 24, %227
  %229 = add i64 %228, 1
  %230 = add i64 %229, 8
  %231 = sub i64 %230, 1
  %232 = and i64 %231, -8
  %233 = icmp ule i64 %232, 448
  br i1 %233, label %234, label %236

234:                                              ; preds = %226
  %235 = call noalias ptr @_emalloc_448() #12
  br label %394

236:                                              ; preds = %226
  %237 = load i64, ptr %5, align 8
  %238 = add i64 24, %237
  %239 = add i64 %238, 1
  %240 = add i64 %239, 8
  %241 = sub i64 %240, 1
  %242 = and i64 %241, -8
  %243 = icmp ule i64 %242, 512
  br i1 %243, label %244, label %246

244:                                              ; preds = %236
  %245 = call noalias ptr @_emalloc_512() #12
  br label %392

246:                                              ; preds = %236
  %247 = load i64, ptr %5, align 8
  %248 = add i64 24, %247
  %249 = add i64 %248, 1
  %250 = add i64 %249, 8
  %251 = sub i64 %250, 1
  %252 = and i64 %251, -8
  %253 = icmp ule i64 %252, 640
  br i1 %253, label %254, label %256

254:                                              ; preds = %246
  %255 = call noalias ptr @_emalloc_640() #12
  br label %390

256:                                              ; preds = %246
  %257 = load i64, ptr %5, align 8
  %258 = add i64 24, %257
  %259 = add i64 %258, 1
  %260 = add i64 %259, 8
  %261 = sub i64 %260, 1
  %262 = and i64 %261, -8
  %263 = icmp ule i64 %262, 768
  br i1 %263, label %264, label %266

264:                                              ; preds = %256
  %265 = call noalias ptr @_emalloc_768() #12
  br label %388

266:                                              ; preds = %256
  %267 = load i64, ptr %5, align 8
  %268 = add i64 24, %267
  %269 = add i64 %268, 1
  %270 = add i64 %269, 8
  %271 = sub i64 %270, 1
  %272 = and i64 %271, -8
  %273 = icmp ule i64 %272, 896
  br i1 %273, label %274, label %276

274:                                              ; preds = %266
  %275 = call noalias ptr @_emalloc_896() #12
  br label %386

276:                                              ; preds = %266
  %277 = load i64, ptr %5, align 8
  %278 = add i64 24, %277
  %279 = add i64 %278, 1
  %280 = add i64 %279, 8
  %281 = sub i64 %280, 1
  %282 = and i64 %281, -8
  %283 = icmp ule i64 %282, 1024
  br i1 %283, label %284, label %286

284:                                              ; preds = %276
  %285 = call noalias ptr @_emalloc_1024() #12
  br label %384

286:                                              ; preds = %276
  %287 = load i64, ptr %5, align 8
  %288 = add i64 24, %287
  %289 = add i64 %288, 1
  %290 = add i64 %289, 8
  %291 = sub i64 %290, 1
  %292 = and i64 %291, -8
  %293 = icmp ule i64 %292, 1280
  br i1 %293, label %294, label %296

294:                                              ; preds = %286
  %295 = call noalias ptr @_emalloc_1280() #12
  br label %382

296:                                              ; preds = %286
  %297 = load i64, ptr %5, align 8
  %298 = add i64 24, %297
  %299 = add i64 %298, 1
  %300 = add i64 %299, 8
  %301 = sub i64 %300, 1
  %302 = and i64 %301, -8
  %303 = icmp ule i64 %302, 1536
  br i1 %303, label %304, label %306

304:                                              ; preds = %296
  %305 = call noalias ptr @_emalloc_1536() #12
  br label %380

306:                                              ; preds = %296
  %307 = load i64, ptr %5, align 8
  %308 = add i64 24, %307
  %309 = add i64 %308, 1
  %310 = add i64 %309, 8
  %311 = sub i64 %310, 1
  %312 = and i64 %311, -8
  %313 = icmp ule i64 %312, 1792
  br i1 %313, label %314, label %316

314:                                              ; preds = %306
  %315 = call noalias ptr @_emalloc_1792() #12
  br label %378

316:                                              ; preds = %306
  %317 = load i64, ptr %5, align 8
  %318 = add i64 24, %317
  %319 = add i64 %318, 1
  %320 = add i64 %319, 8
  %321 = sub i64 %320, 1
  %322 = and i64 %321, -8
  %323 = icmp ule i64 %322, 2048
  br i1 %323, label %324, label %326

324:                                              ; preds = %316
  %325 = call noalias ptr @_emalloc_2048() #12
  br label %376

326:                                              ; preds = %316
  %327 = load i64, ptr %5, align 8
  %328 = add i64 24, %327
  %329 = add i64 %328, 1
  %330 = add i64 %329, 8
  %331 = sub i64 %330, 1
  %332 = and i64 %331, -8
  %333 = icmp ule i64 %332, 2560
  br i1 %333, label %334, label %336

334:                                              ; preds = %326
  %335 = call noalias ptr @_emalloc_2560() #12
  br label %374

336:                                              ; preds = %326
  %337 = load i64, ptr %5, align 8
  %338 = add i64 24, %337
  %339 = add i64 %338, 1
  %340 = add i64 %339, 8
  %341 = sub i64 %340, 1
  %342 = and i64 %341, -8
  %343 = icmp ule i64 %342, 3072
  br i1 %343, label %344, label %346

344:                                              ; preds = %336
  %345 = call noalias ptr @_emalloc_3072() #12
  br label %372

346:                                              ; preds = %336
  %347 = load i64, ptr %5, align 8
  %348 = add i64 24, %347
  %349 = add i64 %348, 1
  %350 = add i64 %349, 8
  %351 = sub i64 %350, 1
  %352 = and i64 %351, -8
  %353 = icmp ule i64 %352, 2093056
  br i1 %353, label %354, label %362

354:                                              ; preds = %346
  %355 = load i64, ptr %5, align 8
  %356 = add i64 24, %355
  %357 = add i64 %356, 1
  %358 = add i64 %357, 8
  %359 = sub i64 %358, 1
  %360 = and i64 %359, -8
  %361 = call noalias ptr @_emalloc_large(i64 noundef %360) #13
  br label %370

362:                                              ; preds = %346
  %363 = load i64, ptr %5, align 8
  %364 = add i64 24, %363
  %365 = add i64 %364, 1
  %366 = add i64 %365, 8
  %367 = sub i64 %366, 1
  %368 = and i64 %367, -8
  %369 = call noalias ptr @_emalloc_huge(i64 noundef %368) #13
  br label %370

370:                                              ; preds = %362, %354
  %371 = phi ptr [ %361, %354 ], [ %369, %362 ]
  br label %372

372:                                              ; preds = %370, %344
  %373 = phi ptr [ %345, %344 ], [ %371, %370 ]
  br label %374

374:                                              ; preds = %372, %334
  %375 = phi ptr [ %335, %334 ], [ %373, %372 ]
  br label %376

376:                                              ; preds = %374, %324
  %377 = phi ptr [ %325, %324 ], [ %375, %374 ]
  br label %378

378:                                              ; preds = %376, %314
  %379 = phi ptr [ %315, %314 ], [ %377, %376 ]
  br label %380

380:                                              ; preds = %378, %304
  %381 = phi ptr [ %305, %304 ], [ %379, %378 ]
  br label %382

382:                                              ; preds = %380, %294
  %383 = phi ptr [ %295, %294 ], [ %381, %380 ]
  br label %384

384:                                              ; preds = %382, %284
  %385 = phi ptr [ %285, %284 ], [ %383, %382 ]
  br label %386

386:                                              ; preds = %384, %274
  %387 = phi ptr [ %275, %274 ], [ %385, %384 ]
  br label %388

388:                                              ; preds = %386, %264
  %389 = phi ptr [ %265, %264 ], [ %387, %386 ]
  br label %390

390:                                              ; preds = %388, %254
  %391 = phi ptr [ %255, %254 ], [ %389, %388 ]
  br label %392

392:                                              ; preds = %390, %244
  %393 = phi ptr [ %245, %244 ], [ %391, %390 ]
  br label %394

394:                                              ; preds = %392, %234
  %395 = phi ptr [ %235, %234 ], [ %393, %392 ]
  br label %396

396:                                              ; preds = %394, %224
  %397 = phi ptr [ %225, %224 ], [ %395, %394 ]
  br label %398

398:                                              ; preds = %396, %214
  %399 = phi ptr [ %215, %214 ], [ %397, %396 ]
  br label %400

400:                                              ; preds = %398, %204
  %401 = phi ptr [ %205, %204 ], [ %399, %398 ]
  br label %402

402:                                              ; preds = %400, %194
  %403 = phi ptr [ %195, %194 ], [ %401, %400 ]
  br label %404

404:                                              ; preds = %402, %184
  %405 = phi ptr [ %185, %184 ], [ %403, %402 ]
  br label %406

406:                                              ; preds = %404, %174
  %407 = phi ptr [ %175, %174 ], [ %405, %404 ]
  br label %408

408:                                              ; preds = %406, %164
  %409 = phi ptr [ %165, %164 ], [ %407, %406 ]
  br label %410

410:                                              ; preds = %408, %154
  %411 = phi ptr [ %155, %154 ], [ %409, %408 ]
  br label %412

412:                                              ; preds = %410, %144
  %413 = phi ptr [ %145, %144 ], [ %411, %410 ]
  br label %414

414:                                              ; preds = %412, %134
  %415 = phi ptr [ %135, %134 ], [ %413, %412 ]
  br label %416

416:                                              ; preds = %414, %124
  %417 = phi ptr [ %125, %124 ], [ %415, %414 ]
  br label %418

418:                                              ; preds = %416, %114
  %419 = phi ptr [ %115, %114 ], [ %417, %416 ]
  br label %420

420:                                              ; preds = %418, %104
  %421 = phi ptr [ %105, %104 ], [ %419, %418 ]
  br label %422

422:                                              ; preds = %420, %94
  %423 = phi ptr [ %95, %94 ], [ %421, %420 ]
  br label %424

424:                                              ; preds = %422, %84
  %425 = phi ptr [ %85, %84 ], [ %423, %422 ]
  br label %426

426:                                              ; preds = %424, %74
  %427 = phi ptr [ %75, %74 ], [ %425, %424 ]
  br label %428

428:                                              ; preds = %426, %64
  %429 = phi ptr [ %65, %64 ], [ %427, %426 ]
  br label %430

430:                                              ; preds = %428, %54
  %431 = phi ptr [ %55, %54 ], [ %429, %428 ]
  br label %440

432:                                              ; preds = %38
  %433 = load i64, ptr %5, align 8
  %434 = add i64 24, %433
  %435 = add i64 %434, 1
  %436 = add i64 %435, 8
  %437 = sub i64 %436, 1
  %438 = and i64 %437, -8
  %439 = call noalias ptr @_emalloc(i64 noundef %438) #13
  br label %440

440:                                              ; preds = %432, %430
  %441 = phi ptr [ %431, %430 ], [ %439, %432 ]
  br label %442

442:                                              ; preds = %440, %30
  %443 = phi ptr [ %37, %30 ], [ %441, %440 ]
  store ptr %443, ptr %7, align 8
  %444 = load ptr, ptr %7, align 8
  store ptr %444, ptr %3, align 8
  store i32 1, ptr %4, align 4
  %445 = load i32, ptr %4, align 4
  %446 = load ptr, ptr %3, align 8
  store i32 %445, ptr %446, align 4
  %447 = load i8, ptr %6, align 1
  %448 = trunc i8 %447 to i1
  %449 = select i1 %448, i32 128, i32 0
  %450 = or i32 22, %449
  %451 = load ptr, ptr %7, align 8
  %452 = getelementptr inbounds %struct._zend_refcounted_h, ptr %451, i32 0, i32 1
  store i32 %450, ptr %452, align 4
  %453 = load ptr, ptr %7, align 8
  %454 = getelementptr inbounds %struct._zend_string, ptr %453, i32 0, i32 1
  store i64 0, ptr %454, align 8
  %455 = load i64, ptr %5, align 8
  %456 = load ptr, ptr %7, align 8
  %457 = getelementptr inbounds %struct._zend_string, ptr %456, i32 0, i32 2
  store i64 %455, ptr %457, align 8
  %458 = load ptr, ptr %7, align 8
  store ptr %458, ptr %11, align 8
  %459 = load ptr, ptr %11, align 8
  %460 = getelementptr inbounds %struct._zend_string, ptr %459, i32 0, i32 3
  %461 = load ptr, ptr %8, align 8
  %462 = load i64, ptr %9, align 8
  call void @llvm.memcpy.p0.p0.i64(ptr align 8 %460, ptr align 1 %461, i64 %462, i1 false)
  %463 = load ptr, ptr %11, align 8
  %464 = getelementptr inbounds %struct._zend_string, ptr %463, i32 0, i32 3
  %465 = load i64, ptr %9, align 8
  %466 = getelementptr inbounds [1 x i8], ptr %464, i64 0, i64 %465
  store i8 0, ptr %466, align 1
  %467 = load ptr, ptr %11, align 8
  store ptr %467, ptr %18, align 8
  %468 = load ptr, ptr %18, align 8
  %469 = load ptr, ptr %17, align 8
  %470 = getelementptr inbounds %struct._zval_struct, ptr %469, i32 0, i32 0
  store ptr %468, ptr %470, align 8
  %471 = load ptr, ptr %17, align 8
  %472 = getelementptr inbounds %struct._zval_struct, ptr %471, i32 0, i32 1
  store i32 262, ptr %472, align 8
  br label %473

473:                                              ; preds = %442
  br label %474

474:                                              ; preds = %473
  %475 = load ptr, ptr %16, align 8
  %476 = getelementptr inbounds %struct._php_userstream_data, ptr %475, i32 0, i32 1
  %477 = call i32 @call_method_if_exists(ptr noundef %476, ptr noundef %14, ptr noundef %15, i32 noundef 0, ptr noundef null)
  call void @zval_ptr_dtor(ptr noundef %15)
  call void @zval_ptr_dtor(ptr noundef %14)
  %478 = load ptr, ptr %16, align 8
  %479 = getelementptr inbounds %struct._php_userstream_data, ptr %478, i32 0, i32 1
  call void @zval_ptr_dtor(ptr noundef %479)
  br label %480

480:                                              ; preds = %474
  %481 = load ptr, ptr %16, align 8
  %482 = getelementptr inbounds %struct._php_userstream_data, ptr %481, i32 0, i32 1
  %483 = getelementptr inbounds %struct._zval_struct, ptr %482, i32 0, i32 1
  store i32 0, ptr %483, align 8
  br label %484

484:                                              ; preds = %480
  %485 = load ptr, ptr %16, align 8
  call void @_efree(ptr noundef %485)
  ret i32 0
}